target datalayout = "e-m:e-p270:32:32-p271:32:32-p272:64:64-i64:64-i128:128-f80:128-n8:16:32:64-S128"
target triple = "x86_64-pc-linux-gnu"

@.str.9 = private unnamed_addr constant [5 x i8] c"pipe\00", align 1
@.str.10 = private unnamed_addr constant [5 x i8] c"fork\00", align 1
@_ZN4moldL13pipe_write_fdE = internal global i32 -1, align 4

; Function Attrs: mustprogress nounwind
define dso_local void @_ZN4mold10fork_childEv() #4 {
  %1 = alloca [2 x i32], align 4
  %2 = alloca i32, align 4
  %3 = alloca [1 x i8], align 1
  %4 = alloca i32, align 4
  call void @llvm.lifetime.start.p0(i64 8, ptr %1) #3
  %5 = getelementptr inbounds [2 x i32], ptr %1, i64 0, i64 0
  %6 = call i32 @pipe(ptr noundef %5) #3
  %7 = icmp eq i32 %6, -1
  br i1 %7, label %8, label %9

8:                                                ; preds = %0
  call void @perror(ptr noundef @.str.9)
  call void @exit(i32 noundef 1) #17
  unreachable

9:                                                ; preds = %0
  call void @llvm.lifetime.start.p0(i64 4, ptr %2) #3
  %10 = call i32 @fork() #3
  store i32 %10, ptr %2, align 4, !tbaa !15
  %11 = load i32, ptr %2, align 4, !tbaa !15
  %12 = icmp eq i32 %11, -1
  br i1 %12, label %13, label %14

13:                                               ; preds = %9
  call void @perror(ptr noundef @.str.10)
  call void @exit(i32 noundef 1) #17
  unreachable

14:                                               ; preds = %9
  %15 = load i32, ptr %2, align 4, !tbaa !15
  %16 = icmp sgt i32 %15, 0
  br i1 %16, label %17, label %50

17:                                               ; preds = %14
  %18 = getelementptr inbounds [2 x i32], ptr %1, i64 0, i64 1
  %19 = load i32, ptr %18, align 4, !tbaa !15
  %20 = call i32 @close(i32 noundef %19)
  call void @llvm.lifetime.start.p0(i64 1, ptr %3) #3
  %21 = getelementptr inbounds [2 x i32], ptr %1, i64 0, i64 0
  %22 = load i32, ptr %21, align 4, !tbaa !15
  %23 = getelementptr inbounds [1 x i8], ptr %3, i64 0, i64 0
  %24 = call i64 @read(i32 noundef %22, ptr noundef %23, i64 noundef 1)
  %25 = icmp eq i64 %24, 1
  br i1 %25, label %26, label %27

26:                                               ; preds = %17
  call void @_exit(i32 noundef 0) #18
  unreachable

27:                                               ; preds = %17
  call void @llvm.lifetime.start.p0(i64 4, ptr %4) #3
  %28 = load i32, ptr %2, align 4, !tbaa !15
  %29 = call i32 @waitpid(i32 noundef %28, ptr noundef %4, i32 noundef 0)
  %30 = load i32, ptr %4, align 4, !tbaa !15
  %31 = and i32 %30, 127
  %32 = icmp eq i32 %31, 0
  br i1 %32, label %33, label %37

33:                                               ; preds = %27
  %34 = load i32, ptr %4, align 4, !tbaa !15
  %35 = and i32 %34, 65280
  %36 = ashr i32 %35, 8
  call void @_exit(i32 noundef %36) #18
  unreachable

37:                                               ; preds = %27
  %38 = load i32, ptr %4, align 4, !tbaa !15
  %39 = and i32 %38, 127
  %40 = add nsw i32 %39, 1
  %41 = trunc i32 %40 to i8
  %42 = sext i8 %41 to i32
  %43 = ashr i32 %42, 1
  %44 = icmp sgt i32 %43, 0
  br i1 %44, label %45, label %49

45:                                               ; preds = %37
  %46 = load i32, ptr %4, align 4, !tbaa !15
  %47 = and i32 %46, 127
  %48 = call i32 @raise(i32 noundef %47) #3
  br label %49

49:                                               ; preds = %45, %37
  call void @_exit(i32 noundef 1) #18
  unreachable

50:                                               ; preds = %14
  %51 = getelementptr inbounds [2 x i32], ptr %1, i64 0, i64 0
  %52 = load i32, ptr %51, align 4, !tbaa !15
  %53 = call i32 @close(i32 noundef %52)
  %54 = getelementptr inbounds [2 x i32], ptr %1, i64 0, i64 1
  %55 = load i32, ptr %54, align 4, !tbaa !15
  store i32 %55, ptr @_ZN4moldL13pipe_write_fdE, align 4, !tbaa !15
  call void @llvm.lifetime.end.p0(i64 4, ptr %2) #3
  call void @llvm.lifetime.end.p0(i64 8, ptr %1) #3
  ret void
}