; Function Attrs: mustprogress nounwind
define dso_local void @_ZN4mold10fork_childEv() local_unnamed_addr #4 {
  %1 = alloca [2 x i32], align 4
  %2 = alloca [1 x i8], align 1
  %3 = alloca i32, align 4
  call void @llvm.lifetime.start.p0(i64 8, ptr nonnull %1) #24
  %4 = call i32 @pipe(ptr noundef nonnull %1) #24
  %5 = icmp eq i32 %4, -1
  br i1 %5, label %6, label %7

6:                                                ; preds = %0
  call void @perror(ptr noundef nonnull @.str.9) #29
  call void @exit(i32 noundef 1) #30
  unreachable

7:                                                ; preds = %0
  %8 = call i32 @fork() #24
  %9 = icmp eq i32 %8, -1
  br i1 %9, label %10, label %11

10:                                               ; preds = %7
  call void @perror(ptr noundef nonnull @.str.10) #29
  call void @exit(i32 noundef 1) #30
  unreachable

11:                                               ; preds = %7
  %12 = icmp sgt i32 %8, 0
  br i1 %12, label %13, label %35

13:                                               ; preds = %11
  %14 = getelementptr inbounds nuw i8, ptr %1, i64 4
  %15 = load i32, ptr %14, align 4, !tbaa !342
  %16 = call i32 @close(i32 noundef %15) #24
  call void @llvm.lifetime.start.p0(i64 1, ptr nonnull %2) #24
  %17 = load i32, ptr %1, align 4, !tbaa !342
  %18 = call i64 @read(i32 noundef %17, ptr noundef nonnull %2, i64 noundef 1) #24
  %19 = icmp eq i64 %18, 1
  br i1 %19, label %20, label %21

20:                                               ; preds = %13
  call void @_exit(i32 noundef 0) #26
  unreachable

21:                                               ; preds = %13
  call void @llvm.lifetime.start.p0(i64 4, ptr nonnull %3) #24
  %22 = call i32 @waitpid(i32 noundef %8, ptr noundef nonnull %3, i32 noundef 0) #24
  %23 = load i32, ptr %3, align 4, !tbaa !342
  %24 = and i32 %23, 127
  %25 = icmp eq i32 %24, 0
  br i1 %25, label %26, label %29

26:                                               ; preds = %21
  %27 = lshr i32 %23, 8
  %28 = and i32 %27, 255
  call void @_exit(i32 noundef %28) #26
  unreachable

29:                                               ; preds = %21
  %30 = shl nuw nsw i32 %24, 24
  %sext = add nuw i32 %30, 16777216
  %31 = icmp sgt i32 %sext, 33554431
  br i1 %31, label %32, label %34

32:                                               ; preds = %29
  %33 = call i32 @raise(i32 noundef %24) #24
  br label %34

34:                                               ; preds = %32, %29
  call void @_exit(i32 noundef 1) #26
  unreachable

35:                                               ; preds = %11
  %36 = load i32, ptr %1, align 4, !tbaa !342
  %37 = call i32 @close(i32 noundef %36) #24
  %38 = getelementptr inbounds nuw i8, ptr %1, i64 4
  %39 = load i32, ptr %38, align 4, !tbaa !342
  store i32 %39, ptr @_ZN4moldL13pipe_write_fdE, align 4, !tbaa !342
  call void @llvm.lifetime.end.p0(i64 8, ptr nonnull %1) #24
  ret void
}